###############################################################################
#
# IAR ELF Linker V8.22.2.15995/W32 for ARM                16/Sep/2018  23:28:40
# Copyright 2007-2018 IAR Systems AB.
#
#    Output file  =  
#        H:\cp_data\STM32\stm32f103_program\program_F103\Basic_Project_F103\Debug\Exe\BasicProjectF103.out
#    Map file     =  
#        H:\cp_data\STM32\stm32f103_program\program_F103\Basic_Project_F103\Debug\List\BasicProjectF103.map
#    Command line =  
#        -f C:\Users\admin\AppData\Local\Temp\EW9E16.tmp
#        (H:\cp_data\STM32\stm32f103_program\program_F103\Basic_Project_F103\Debug\Obj\app_task.o
#        H:\cp_data\STM32\stm32f103_program\program_F103\Basic_Project_F103\Debug\Obj\bsp_board_test.o
#        H:\cp_data\STM32\stm32f103_program\program_F103\Basic_Project_F103\Debug\Obj\DebugSys.o
#        H:\cp_data\STM32\stm32f103_program\program_F103\Basic_Project_F103\Debug\Obj\delay.o
#        H:\cp_data\STM32\stm32f103_program\program_F103\Basic_Project_F103\Debug\Obj\lcd12864.o
#        H:\cp_data\STM32\stm32f103_program\program_F103\Basic_Project_F103\Debug\Obj\led.o
#        H:\cp_data\STM32\stm32f103_program\program_F103\Basic_Project_F103\Debug\Obj\main.o
#        H:\cp_data\STM32\stm32f103_program\program_F103\Basic_Project_F103\Debug\Obj\misc.o
#        H:\cp_data\STM32\stm32f103_program\program_F103\Basic_Project_F103\Debug\Obj\myiic.o
#        H:\cp_data\STM32\stm32f103_program\program_F103\Basic_Project_F103\Debug\Obj\os_core.o
#        H:\cp_data\STM32\stm32f103_program\program_F103\Basic_Project_F103\Debug\Obj\os_cpu_a.o
#        H:\cp_data\STM32\stm32f103_program\program_F103\Basic_Project_F103\Debug\Obj\os_cpu_c.o
#        H:\cp_data\STM32\stm32f103_program\program_F103\Basic_Project_F103\Debug\Obj\os_dbg.o
#        H:\cp_data\STM32\stm32f103_program\program_F103\Basic_Project_F103\Debug\Obj\os_flag.o
#        H:\cp_data\STM32\stm32f103_program\program_F103\Basic_Project_F103\Debug\Obj\os_mbox.o
#        H:\cp_data\STM32\stm32f103_program\program_F103\Basic_Project_F103\Debug\Obj\os_mem.o
#        H:\cp_data\STM32\stm32f103_program\program_F103\Basic_Project_F103\Debug\Obj\os_mutex.o
#        H:\cp_data\STM32\stm32f103_program\program_F103\Basic_Project_F103\Debug\Obj\os_q.o
#        H:\cp_data\STM32\stm32f103_program\program_F103\Basic_Project_F103\Debug\Obj\os_sem.o
#        H:\cp_data\STM32\stm32f103_program\program_F103\Basic_Project_F103\Debug\Obj\os_task.o
#        H:\cp_data\STM32\stm32f103_program\program_F103\Basic_Project_F103\Debug\Obj\os_time.o
#        H:\cp_data\STM32\stm32f103_program\program_F103\Basic_Project_F103\Debug\Obj\os_tmr.o
#        H:\cp_data\STM32\stm32f103_program\program_F103\Basic_Project_F103\Debug\Obj\startup_stm32f10x_hd.o
#        H:\cp_data\STM32\stm32f103_program\program_F103\Basic_Project_F103\Debug\Obj\stm32f10x_adc.o
#        H:\cp_data\STM32\stm32f103_program\program_F103\Basic_Project_F103\Debug\Obj\stm32f10x_bkp.o
#        H:\cp_data\STM32\stm32f103_program\program_F103\Basic_Project_F103\Debug\Obj\stm32f10x_can.o
#        H:\cp_data\STM32\stm32f103_program\program_F103\Basic_Project_F103\Debug\Obj\stm32f10x_cec.o
#        H:\cp_data\STM32\stm32f103_program\program_F103\Basic_Project_F103\Debug\Obj\stm32f10x_crc.o
#        H:\cp_data\STM32\stm32f103_program\program_F103\Basic_Project_F103\Debug\Obj\stm32f10x_dac.o
#        H:\cp_data\STM32\stm32f103_program\program_F103\Basic_Project_F103\Debug\Obj\stm32f10x_dbgmcu.o
#        H:\cp_data\STM32\stm32f103_program\program_F103\Basic_Project_F103\Debug\Obj\stm32f10x_dma.o
#        H:\cp_data\STM32\stm32f103_program\program_F103\Basic_Project_F103\Debug\Obj\stm32f10x_exti.o
#        H:\cp_data\STM32\stm32f103_program\program_F103\Basic_Project_F103\Debug\Obj\stm32f10x_flash.o
#        H:\cp_data\STM32\stm32f103_program\program_F103\Basic_Project_F103\Debug\Obj\stm32f10x_fsmc.o
#        H:\cp_data\STM32\stm32f103_program\program_F103\Basic_Project_F103\Debug\Obj\stm32f10x_gpio.o
#        H:\cp_data\STM32\stm32f103_program\program_F103\Basic_Project_F103\Debug\Obj\stm32f10x_i2c.o
#        H:\cp_data\STM32\stm32f103_program\program_F103\Basic_Project_F103\Debug\Obj\stm32f10x_it.o
#        H:\cp_data\STM32\stm32f103_program\program_F103\Basic_Project_F103\Debug\Obj\stm32f10x_iwdg.o
#        H:\cp_data\STM32\stm32f103_program\program_F103\Basic_Project_F103\Debug\Obj\stm32f10x_pwr.o
#        H:\cp_data\STM32\stm32f103_program\program_F103\Basic_Project_F103\Debug\Obj\stm32f10x_rcc.o
#        H:\cp_data\STM32\stm32f103_program\program_F103\Basic_Project_F103\Debug\Obj\stm32f10x_rtc.o
#        H:\cp_data\STM32\stm32f103_program\program_F103\Basic_Project_F103\Debug\Obj\stm32f10x_sdio.o
#        H:\cp_data\STM32\stm32f103_program\program_F103\Basic_Project_F103\Debug\Obj\stm32f10x_spi.o
#        H:\cp_data\STM32\stm32f103_program\program_F103\Basic_Project_F103\Debug\Obj\stm32f10x_tim.o
#        H:\cp_data\STM32\stm32f103_program\program_F103\Basic_Project_F103\Debug\Obj\stm32f10x_usart.o
#        H:\cp_data\STM32\stm32f103_program\program_F103\Basic_Project_F103\Debug\Obj\stm32f10x_wwdg.o
#        H:\cp_data\STM32\stm32f103_program\program_F103\Basic_Project_F103\Debug\Obj\sys.o
#        H:\cp_data\STM32\stm32f103_program\program_F103\Basic_Project_F103\Debug\Obj\system_stm32f10x.o
#        H:\cp_data\STM32\stm32f103_program\program_F103\Basic_Project_F103\Debug\Obj\usart.o
#        H:\cp_data\STM32\stm32f103_program\program_F103\Basic_Project_F103\Debug\Obj\xshell_cmd.o
#        -o
#        H:\cp_data\STM32\stm32f103_program\program_F103\Basic_Project_F103\Debug\Exe\BasicProjectF103.out
#        --map
#        H:\cp_data\STM32\stm32f103_program\program_F103\Basic_Project_F103\Debug\List\BasicProjectF103.map
#        --log
#        libraries,initialization,modules,redirects,sections,veneers,unused_fragments,call_graph
#        --log_file
#        H:\cp_data\STM32\stm32f103_program\program_F103\Basic_Project_F103\Debug\List\BasicProjectF103.log
#        --config "C:\Program Files (x86)\IAR Systems\Embedded Workbench
#        8.0\arm\config\linker\ST\stm32f103x8.icf" --semihosting --entry
#        __iar_program_start --vfe --text_out locale)
#
###############################################################################

*******************************************************************************
*** RUNTIME MODEL ATTRIBUTES
***

CppFlavor       = *
__SystemLibrary = DLib
__dlib_version  = 6


*******************************************************************************
*** HEAP SELECTION
***

The basic heap was selected because no calls to memory allocation
functions were found in the application outside of system library
functions, and there are calls to deallocation functions in the
application.


*******************************************************************************
*** PLACEMENT SUMMARY
***

"A0":  place at 0x08000000 { ro section .intvec };
"P1":  place in [from 0x08000000 to 0x0800ffff] { ro };
define block CSTACK with size = 2K, alignment = 8 { };
define block HEAP with size = 2K, alignment = 8 { };
"P2":  place in [from 0x20000000 to 0x20004fff] {
          rw, block CSTACK, block HEAP };
initialize by copy { rw };

  Section            Kind        Address    Size  Object
  -------            ----        -------    ----  ------
"A0":                                      0x130
  .intvec            ro code  0x08000000   0x130  startup_stm32f10x_hd.o [1]
                            - 0x08000130   0x130

"P1":                                     0x5f36
  .text              ro code  0x08000130   0xe22  xprintffull_nomb.o [3]
  .text              ro code  0x08000f54    0x16  strchr.o [5]
  .text              ro code  0x08000f6c    0x40  xfail_s.o [3]
  .text              ro code  0x08000fac    0x36  strlen.o [5]
  .text              ro code  0x08000fe4    0x58  memchr.o [5]
  .text              ro code  0x0800103c   0x22e  I64DivMod.o [5]
  .text              ro code  0x0800126c   0x1a2  DblMul.o [4]
  .text              ro code  0x08001410    0xa6  ABImemcpy.o [5]
  .text              ro code  0x080014b8    0x70  frexp.o [4]
  .text              ro code  0x08001528    0x2e  DblCmpLe.o [4]
  .text              ro code  0x08001558    0x2e  DblCmpGe.o [4]
  .text              ro code  0x08001588   0x13a  ldexp.o [4]
  .text              ro code  0x080016c4    0x3a  DblToS32.o [4]
  .text              ro code  0x08001700    0x22  S32ToDbl.o [4]
  .text              ro code  0x08001724    0xe2  DblSub.o [4]
  .text              ro code  0x08001808   0x246  DblDiv.o [4]
  .text              ro code  0x08001a50    0x28  DblToU32.o [4]
  .text              ro code  0x08001a78    0x1a  U32ToDbl.o [4]
  .text              ro code  0x08001a94     0x8  xlocale_c.o [3]
  .text              ro code  0x08001a9c     0x6  abort.o [3]
  .text              ro code  0x08001aa4     0x2  I64DivZer.o [5]
  .text              ro code  0x08001aa8   0x168  DblAdd.o [4]
  .text              ro code  0x08001c10    0x14  exit.o [6]
  .text              ro code  0x08001c24   0x7c4  os_core.o [1]
  .text              ro code  0x080023e8    0x8e  os_cpu_c.o [1]
  .text              ro code  0x08002478    0x60  os_flag.o [1]
  .text              ro code  0x080024d8    0x54  os_q.o [1]
  CODE               ro code  0x0800252c    0xb4  os_cpu_a.o [1]
  .text              ro code  0x080025e0    0x80  os_time.o [1]
  .text              ro code  0x08002660   0x3ac  os_task.o [1]
  .text              ro code  0x08002a0c    0xa8  sys.o [1]
  .text              ro code  0x08002ab4   0x590  stm32f10x_rcc.o [1]
  .text              ro code  0x08003044    0xac  stm32f10x_flash.o [1]
  .text              ro code  0x080030f0   0x11c  misc.o [1]
  .text              ro code  0x0800320c   0x61c  stm32f10x_usart.o [1]
  .rodata            const    0x08003828   0x5f0  lcd12864.o [1]
  .text              ro code  0x08003e18   0x450  stm32f10x_i2c.o [1]
  .text              ro code  0x08004268   0x378  lcd12864.o [1]
  .text              ro code  0x080045e0   0x2f4  myiic.o [1]
  .text              ro code  0x080048d4    0x20  DebugSys.o [1]
  .text              ro code  0x080048f4   0x1f8  stm32f10x_gpio.o [1]
  .text              ro code  0x08004aec    0x20  vprintf.o [3]
  .rodata            const    0x08004b0c   0x228  lcd12864.o [1]
  .text              ro code  0x08004d34   0x1a6  xshell_cmd.o [1]
  .text              ro code  0x08004edc    0x28  printf.o [3]
  .text              ro code  0x08004f04   0x104  usart.o [1]
  .text              ro code  0x08005008    0x4a  strcmp.o [5]
  .text              ro code  0x08005054   0x188  app_task.o [1]
  .text              ro code  0x080051dc   0x128  delay.o [1]
  .text              ro code  0x08005304    0xe2  FltAdd.o [4]
  .text              ro code  0x080053e8    0x74  FltSub.o [4]
  .text              ro code  0x0800545c   0x158  system_stm32f10x.o [1]
  .rodata            const    0x080055b4   0x120  xshell_cmd.o [1]
  .rodata            const    0x080056d4   0x100  os_core.o [1]
  .text              ro code  0x080057d4    0x9c  main.o [1]
  .text              ro code  0x08005870     0x8  bsp_board_test.o [1]
  .text              ro code  0x08005878    0x38  led.o [1]
  .rodata            const    0x080058b0    0x64  stm32f10x_flash.o [1]
  .rodata            const    0x08005914    0x64  stm32f10x_gpio.o [1]
  .rodata            const    0x08005978    0x64  stm32f10x_i2c.o [1]
  .rodata            const    0x080059dc    0x64  stm32f10x_rcc.o [1]
  .rodata            const    0x08005a40    0x64  stm32f10x_usart.o [1]
  .rodata            const    0x08005aa4    0x58  misc.o [1]
  .rodata            const    0x08005afc    0x40  xshell_cmd.o [1]
  .text              ro code  0x08005b3c    0x40  zero_init3.o [5]
  .text              ro code  0x08005b7c    0x38  packbits_init_single.o [5]
  .rodata            const    0x08005bb4    0x28  myiic.o [1]
  .rodata            const    0x08005bdc    0x28  myiic.o [1]
  .text              ro code  0x08005c04    0x28  data_init.o [5]
  .rodata            const    0x08005c2c    0x24  main.o [1]
  .rodata            const    0x08005c50    0x24  main.o [1]
  .rodata            const    0x08005c74    0x24  myiic.o [1]
  .iar.init_table    const    0x08005c98    0x20  - Linker created -
  .rodata            const    0x08005cb8    0x20  app_task.o [1]
  .rodata            const    0x08005cd8    0x20  main.o [1]
  .rodata            const    0x08005cf8    0x20  main.o [1]
  .rodata            const    0x08005d18    0x20  main.o [1]
  .text              ro code  0x08005d38    0x1e  cmain.o [5]
  .text              ro code  0x08005d56     0x4  low_level_init.o [3]
  .text              ro code  0x08005d5a     0x4  exit.o [3]
  .text              ro code  0x08005d60     0xa  cexit.o [5]
  .rodata            const    0x08005d6c    0x1c  main.o [1]
  .rodata            const    0x08005d88    0x1c  main.o [1]
  .rodata            const    0x08005da4    0x1c  main.o [1]
  .rodata            const    0x08005dc0    0x1c  myiic.o [1]
  .rodata            const    0x08005ddc    0x18  main.o [1]
  .text              ro code  0x08005df4    0x16  xprout.o [3]
  .text              ro code  0x08005e0c     0xc  putchar.o [3]
  .rodata            const    0x08005e18    0x14  app_task.o [1]
  .rodata            const    0x08005e2c    0x14  xshell_cmd.o [1]
  .rodata            const    0x08005e40    0x10  os_core.o [1]
  .rodata            const    0x08005e50    0x10  os_core.o [1]
  .rodata            const    0x08005e60    0x10  xshell_cmd.o [1]
  .rodata            const    0x08005e70    0x10  xshell_cmd.o [1]
  .text              ro code  0x08005e80    0x10  startup_stm32f10x_hd.o [1]
  .rodata            const    0x08005e90     0xc  myiic.o [1]
  .rodata            const    0x08005e9c     0xc  myiic.o [1]
  .rodata            const    0x08005ea8     0xc  myiic.o [1]
  .rodata            const    0x08005eb4     0xc  xshell_cmd.o [1]
  .text              ro code  0x08005ec0     0xc  stm32f10x_it.o [1]
  .text              ro code  0x08005ecc     0xc  cstartup_M.o [5]
  .rodata            const    0x08005ed8     0x8  myiic.o [1]
  .rodata            const    0x08005ee0     0x8  myiic.o [1]
  .rodata            const    0x08005ee8     0x8  xshell_cmd.o [1]
  .rodata            const    0x08005ef0     0x8  xshell_cmd.o [1]
  .rodata            const    0x08005ef8     0x8  xshell_cmd.o [1]
  .rodata            const    0x08005f00     0x4  xlocale_c.o [3]
  .text              ro code  0x08005f04     0x4  startup_stm32f10x_hd.o [1]
  .text              ro code  0x08005f08     0x4  startup_stm32f10x_hd.o [1]
  .text              ro code  0x08005f0c     0x4  startup_stm32f10x_hd.o [1]
  .text              ro code  0x08005f10     0x4  startup_stm32f10x_hd.o [1]
  .text              ro code  0x08005f14     0x4  startup_stm32f10x_hd.o [1]
  .text              ro code  0x08005f18     0x4  startup_stm32f10x_hd.o [1]
  .text              ro code  0x08005f1c     0x4  startup_stm32f10x_hd.o [1]
  .text              ro code  0x08005f20     0x4  startup_stm32f10x_hd.o [1]
  .text              ro code  0x08005f24     0x4  startup_stm32f10x_hd.o [1]
  .text              ro code  0x08005f28     0x4  startup_stm32f10x_hd.o [1]
  .text              ro code  0x08005f2c     0x4  startup_stm32f10x_hd.o [1]
  .text              ro code  0x08005f30     0x4  startup_stm32f10x_hd.o [1]
  .text              ro code  0x08005f34     0x4  startup_stm32f10x_hd.o [1]
  .text              ro code  0x08005f38     0x4  startup_stm32f10x_hd.o [1]
  .text              ro code  0x08005f3c     0x4  startup_stm32f10x_hd.o [1]
  .text              ro code  0x08005f40     0x4  startup_stm32f10x_hd.o [1]
  .text              ro code  0x08005f44     0x4  startup_stm32f10x_hd.o [1]
  .text              ro code  0x08005f48     0x4  startup_stm32f10x_hd.o [1]
  .text              ro code  0x08005f4c     0x4  startup_stm32f10x_hd.o [1]
  .text              ro code  0x08005f50     0x4  startup_stm32f10x_hd.o [1]
  .text              ro code  0x08005f54     0x4  startup_stm32f10x_hd.o [1]
  .text              ro code  0x08005f58     0x4  startup_stm32f10x_hd.o [1]
  .text              ro code  0x08005f5c     0x4  startup_stm32f10x_hd.o [1]
  .text              ro code  0x08005f60     0x4  startup_stm32f10x_hd.o [1]
  .text              ro code  0x08005f64     0x4  startup_stm32f10x_hd.o [1]
  .text              ro code  0x08005f68     0x4  startup_stm32f10x_hd.o [1]
  .text              ro code  0x08005f6c     0x4  startup_stm32f10x_hd.o [1]
  .text              ro code  0x08005f70     0x4  startup_stm32f10x_hd.o [1]
  .text              ro code  0x08005f74     0x4  startup_stm32f10x_hd.o [1]
  .text              ro code  0x08005f78     0x4  startup_stm32f10x_hd.o [1]
  .text              ro code  0x08005f7c     0x4  startup_stm32f10x_hd.o [1]
  .text              ro code  0x08005f80     0x4  startup_stm32f10x_hd.o [1]
  .text              ro code  0x08005f84     0x4  startup_stm32f10x_hd.o [1]
  .text              ro code  0x08005f88     0x4  startup_stm32f10x_hd.o [1]
  .text              ro code  0x08005f8c     0x4  startup_stm32f10x_hd.o [1]
  .text              ro code  0x08005f90     0x4  startup_stm32f10x_hd.o [1]
  .text              ro code  0x08005f94     0x4  startup_stm32f10x_hd.o [1]
  .text              ro code  0x08005f98     0x4  startup_stm32f10x_hd.o [1]
  .text              ro code  0x08005f9c     0x4  startup_stm32f10x_hd.o [1]
  .text              ro code  0x08005fa0     0x4  startup_stm32f10x_hd.o [1]
  .text              ro code  0x08005fa4     0x4  startup_stm32f10x_hd.o [1]
  .text              ro code  0x08005fa8     0x4  startup_stm32f10x_hd.o [1]
  .text              ro code  0x08005fac     0x4  startup_stm32f10x_hd.o [1]
  .text              ro code  0x08005fb0     0x4  startup_stm32f10x_hd.o [1]
  .text              ro code  0x08005fb4     0x4  startup_stm32f10x_hd.o [1]
  .text              ro code  0x08005fb8     0x4  startup_stm32f10x_hd.o [1]
  .text              ro code  0x08005fbc     0x4  startup_stm32f10x_hd.o [1]
  .text              ro code  0x08005fc0     0x4  startup_stm32f10x_hd.o [1]
  .text              ro code  0x08005fc4     0x4  startup_stm32f10x_hd.o [1]
  .text              ro code  0x08005fc8     0x4  startup_stm32f10x_hd.o [1]
  .text              ro code  0x08005fcc     0x4  startup_stm32f10x_hd.o [1]
  .text              ro code  0x08005fd0     0x4  startup_stm32f10x_hd.o [1]
  .text              ro code  0x08005fd4     0x4  startup_stm32f10x_hd.o [1]
  .text              ro code  0x08005fd8     0x4  startup_stm32f10x_hd.o [1]
  .text              ro code  0x08005fdc     0x4  startup_stm32f10x_hd.o [1]
  .text              ro code  0x08005fe0     0x4  startup_stm32f10x_hd.o [1]
  .text              ro code  0x08005fe4     0x4  startup_stm32f10x_hd.o [1]
  .text              ro code  0x08005fe8     0x4  startup_stm32f10x_hd.o [1]
  .text              ro code  0x08005fec     0x4  startup_stm32f10x_hd.o [1]
  .text              ro code  0x08005ff0     0x4  startup_stm32f10x_hd.o [1]
  .rodata            const    0x08005ff4     0x0  zero_init3.o [5]
  .rodata            const    0x08005ff4     0x0  packbits_init_single.o [5]
  Initializer bytes  const    0x08005ff4    0x72  <for P2-1>
                            - 0x08006066  0x5f36

"P2", part 1 of 3:                          0x9a
  P2-1                        0x20000000    0x9a  <Init block>
    .data            inited   0x20000000     0x4  app_task.o [1]
    .data            inited   0x20000004    0x10  stm32f10x_rcc.o [1]
    .data            inited   0x20000014     0x4  stm32f10x_rcc.o [1]
    .data            inited   0x20000018    0x48  xfiles.o [3]
    .data            inited   0x20000060    0x38  xlocale_c.o [3]
    .data            inited   0x20000098     0x1  app_task.o [1]
    .data            inited   0x20000099     0x1  myiic.o [1]
                            - 0x2000009a    0x9a

"P2", part 2 of 3:                        0x30a8
  .bss               zero     0x2000009c  0x2000  app_task.o [1]
  .bss               zero     0x2000209c   0x3f0  os_core.o [1]
  .bss               zero     0x20002490   0x200  app_task.o [1]
  .bss               zero     0x20002690   0x200  os_core.o [1]
  .bss               zero     0x20002890   0x200  os_core.o [1]
  .bss               zero     0x20002a90   0x100  app_task.o [1]
  .bss               zero     0x20002b90   0x100  app_task.o [1]
  .bss               zero     0x20002c90   0x100  app_task.o [1]
  .bss               zero     0x20002d90   0x100  os_core.o [1]
  .bss               zero     0x20002e90    0xc8  os_core.o [1]
  .bss               zero     0x20002f58    0x78  os_core.o [1]
  .bss               zero     0x20002fd0    0x78  usart.o [1]
  .bss               zero     0x20003048    0x50  os_core.o [1]
  .bss               zero     0x20003098    0x50  xfiles.o [3]
  .bss               zero     0x200030e8     0xc  xshell_cmd.o [1]
  .bss               zero     0x200030f4     0x8  os_core.o [1]
  .bss               zero     0x200030fc     0x4  os_core.o [1]
  .bss               zero     0x20003100     0x4  os_core.o [1]
  .bss               zero     0x20003104     0x4  os_core.o [1]
  .bss               zero     0x20003108     0x4  os_core.o [1]
  .bss               zero     0x2000310c     0x4  os_core.o [1]
  .bss               zero     0x20003110     0x4  os_core.o [1]
  .bss               zero     0x20003114     0x4  os_core.o [1]
  .bss               zero     0x20003118     0x4  os_core.o [1]
  .bss               zero     0x2000311c     0x4  os_core.o [1]
  .bss               zero     0x20003120     0x4  os_core.o [1]
  .bss               zero     0x20003124     0x4  os_core.o [1]
  .bss               zero     0x20003128     0x4  os_core.o [1]
  .bss               zero     0x2000312c     0x4  xfail_s.o [3]
  .bss               zero     0x20003130     0x2  delay.o [1]
  .bss               zero     0x20003132     0x2  myiic.o [1]
  .bss               zero     0x20003134     0x2  os_core.o [1]
  .bss               zero     0x20003136     0x2  usart.o [1]
  .bss               zero     0x20003138     0x1  delay.o [1]
  .bss               zero     0x20003139     0x1  os_core.o [1]
  .bss               zero     0x2000313a     0x1  os_core.o [1]
  .bss               zero     0x2000313b     0x1  os_core.o [1]
  .bss               zero     0x2000313c     0x1  os_core.o [1]
  .bss               zero     0x2000313d     0x1  os_core.o [1]
  .bss               zero     0x2000313e     0x1  os_core.o [1]
  .bss               zero     0x2000313f     0x1  os_core.o [1]
  .bss               zero     0x20003140     0x1  os_core.o [1]
  .bss               zero     0x20003141     0x1  os_core.o [1]
                            - 0x20003142  0x30a6

"P2", part 3 of 3:                         0x800
  CSTACK                      0x20003148   0x800  <Block>
    CSTACK           uninit   0x20003148   0x800  <Block tail>
                            - 0x20003948   0x800


*******************************************************************************
*** INIT TABLE
***

          Address     Size
          -------     ----
Zero (__iar_zero_init3)
    1 destination range, total size 0x30a6:
          0x2000009c  0x30a6

Copy/packbits (__iar_packbits_init_single3)
    1 source range, total size 0x72 (74% of destination):
          0x08005ff4    0x72
    1 destination range, total size 0x9a:
          0x20000000    0x9a



*******************************************************************************
*** MODULE SUMMARY
***

    Module                  ro code  ro data  rw data
    ------                  -------  -------  -------
H:\cp_data\STM32\stm32f103_program\program_F103\Basic_Project_F103\Debug\Obj: [1]
    DebugSys.o                   32
    app_task.o                  392       55    9 477
    bsp_board_test.o              8
    delay.o                     296                 3
    lcd12864.o                  888    2 072
    led.o                        56
    main.o                      156      276
    misc.o                      284       88
    myiic.o                     756      197        3
    os_core.o                 1 988      288    2 755
    os_cpu_a.o                  180
    os_cpu_c.o                  142
    os_flag.o                    96
    os_q.o                       84
    os_task.o                   940
    os_time.o                   128
    startup_stm32f10x_hd.o      560
    stm32f10x_flash.o           172      100
    stm32f10x_gpio.o            504      100
    stm32f10x_i2c.o           1 104      100
    stm32f10x_it.o               12
    stm32f10x_rcc.o           1 424      115       20
    stm32f10x_usart.o         1 564      100
    sys.o                       168
    system_stm32f10x.o          344
    usart.o                     260               122
    xshell_cmd.o                422      440       12
    -------------------------------------------------
    Total:                   12 960    3 931   12 392

command line: [2]
    -------------------------------------------------
    Total:

dl7M_tlf.a: [3]
    abort.o                       6
    exit.o                        4
    low_level_init.o              4
    printf.o                     40
    putchar.o                    12
    vprintf.o                    32
    xfail_s.o                    64                 4
    xfiles.o                              54      152
    xlocale_c.o                   8       45       56
    xprintffull_nomb.o        3 618
    xprout.o                     22
    -------------------------------------------------
    Total:                    3 810       99      212

m7M_tl.a: [4]
    DblAdd.o                    360
    DblCmpGe.o                   46
    DblCmpLe.o                   46
    DblDiv.o                    582
    DblMul.o                    418
    DblSub.o                    226
    DblToS32.o                   58
    DblToU32.o                   40
    FltAdd.o                    226
    FltSub.o                    116
    S32ToDbl.o                   34
    U32ToDbl.o                   26
    frexp.o                     112
    ldexp.o                     314
    -------------------------------------------------
    Total:                    2 604

rt7M_tl.a: [5]
    ABImemcpy.o                 166
    I64DivMod.o                 558
    I64DivZer.o                   2
    cexit.o                      10
    cmain.o                      30
    cstartup_M.o                 12
    data_init.o                  40
    memchr.o                     88
    packbits_init_single.o       56
    strchr.o                     22
    strcmp.o                     74
    strlen.o                     54
    zero_init3.o                 64
    -------------------------------------------------
    Total:                    1 176

shb_l.a: [6]
    exit.o                       20
    -------------------------------------------------
    Total:                       20

    Gaps                         44        2        4
    Linker created                        32    2 048
-----------------------------------------------------
    Grand Total:             20 614    4 064   14 656


*******************************************************************************
*** ENTRY LIST
***

Entry                      Address    Size  Type      Object
-----                      -------    ----  ----      ------
.iar.init_table$$Base   0x08005c98           --   Gb  - Linker created -
.iar.init_table$$Limit  0x08005cb8           --   Gb  - Linker created -
?main                   0x08005d39          Code  Gb  cmain.o [5]
ADCPrescTable           0x20000014     0x4  Data  Lc  stm32f10x_rcc.o [1]
APBAHBPrescTable        0x20000004    0x10  Data  Lc  stm32f10x_rcc.o [1]
BusFault_Handler        0x08005ec7     0x2  Code  Gb  stm32f10x_it.o [1]
CONSOLE_TASK_STK        0x2000009c  0x2000  Data  Gb  app_task.o [1]
CSTACK$$Base            0x20003148           --   Gb  - Linker created -
CSTACK$$Limit           0x20003948           --   Gb  - Linker created -
DebugMon_Handler        0x08005ecb     0x2  Code  Gb  stm32f10x_it.o [1]
Dprintf                 0x080048d5    0x20  Code  Gb  DebugSys.o [1]
F6x8                    0x08004b0c   0x228  Data  Gb  lcd12864.o [1]
F8X16                   0x08003828   0x5f0  Data  Gb  lcd12864.o [1]
FLASH_HalfCycleAccessCmd
                        0x08003077    0x38  Code  Gb  stm32f10x_flash.o [1]
FLASH_PrefetchBufferCmd
                        0x080030af    0x38  Code  Gb  stm32f10x_flash.o [1]
FLASH_SetLatency        0x08003045    0x32  Code  Gb  stm32f10x_flash.o [1]
FLOAT_TASK_STK          0x20002490   0x200  Data  Gb  app_task.o [1]
GPIO_Init               0x080048f5   0x16e  Code  Gb  stm32f10x_gpio.o [1]
GPIO_SetBits            0x08004a63    0x64  Code  Gb  stm32f10x_gpio.o [1]
HardFault_Handler       0x08005ec3     0x2  Code  Gb  stm32f10x_it.o [1]
I2C_CheckEvent          0x08004139    0xe4  Code  Gb  stm32f10x_i2c.o [1]
I2C_Cmd                 0x08003f95    0x5a  Code  Gb  stm32f10x_i2c.o [1]
I2C_GenerateSTART       0x08003fef    0x5a  Code  Gb  stm32f10x_i2c.o [1]
I2C_GenerateSTOP        0x08004049    0x5a  Code  Gb  stm32f10x_i2c.o [1]
I2C_Init                0x08003e19   0x17c  Code  Gb  stm32f10x_i2c.o [1]
I2C_Send7bitAddress     0x080040cb    0x56  Code  Gb  stm32f10x_i2c.o [1]
I2C_SendData            0x080040a3    0x28  Code  Gb  stm32f10x_i2c.o [1]
IIC_Detection           0x0800470f    0x70  Code  Gb  myiic.o [1]
IIC_Init                0x080047ff    0x8e  Code  Gb  myiic.o [1]
IIC_Init::static_flag   0x20000099     0x1  Data  Lc  myiic.o [1]
IIC_Write_One_Byte      0x080045e1   0x12e  Code  Gb  myiic.o [1]
Init_System             0x08002a2f    0x86  Code  Gb  sys.o [1]
Init_Task               0x08005055    0x12  Code  Gb  app_task.o [1]
LED0_TASK_STK           0x20002b90   0x100  Data  Gb  app_task.o [1]
LED1_TASK_STK           0x20002c90   0x100  Data  Gb  app_task.o [1]
LED_Init                0x08005879    0x38  Code  Gb  led.o [1]
LoadInt                 0x080002e3    0x7a  Code  Lc  xprintffull_nomb.o [3]
MemManage_Handler       0x08005ec5     0x2  Code  Gb  stm32f10x_it.o [1]
My_SystemReset          0x08002a11    0x14  Code  Gb  sys.o [1]
NMI_Handler             0x08005ec1     0x2  Code  Gb  stm32f10x_it.o [1]
NVIC_Init               0x08003125    0x94  Code  Gb  misc.o [1]
NVIC_PriorityGroupConfig
                        0x080030f1    0x34  Code  Gb  misc.o [1]
OLED_Clear              0x080042bb    0x44  Code  Gb  lcd12864.o [1]
OLED_Init               0x080044fd    0xe4  Code  Gb  lcd12864.o [1]
OLED_Set_Pos            0x08004289    0x32  Code  Gb  lcd12864.o [1]
OLED_ShowChar           0x080042ff    0xba  Code  Gb  lcd12864.o [1]
OLED_ShowNum            0x080043f5    0xc0  Code  Gb  lcd12864.o [1]
OLED_ShowString         0x080044b5    0x48  Code  Gb  lcd12864.o [1]
OLED_WR_Byte            0x08004269    0x20  Code  Gb  lcd12864.o [1]
OSCPUUsage              0x20003134     0x2  Data  Gb  os_core.o [1]
OSCtxSw                 0x0800255b          Code  Gb  os_cpu_a.o [1]
OSCtxSwCtr              0x200030fc     0x4  Data  Gb  os_core.o [1]
OSEventFreeList         0x20003100     0x4  Data  Gb  os_core.o [1]
OSEventTbl              0x20002e90    0xc8  Data  Gb  os_core.o [1]
OSFlagFreeList          0x20003104     0x4  Data  Gb  os_core.o [1]
OSFlagTbl               0x20003048    0x50  Data  Gb  os_core.o [1]
OSIdleCtr               0x20003110     0x4  Data  Gb  os_core.o [1]
OSIdleCtrMax            0x20003108     0x4  Data  Gb  os_core.o [1]
OSIdleCtrRun            0x2000310c     0x4  Data  Gb  os_core.o [1]
OSInit                  0x08001c25    0x2c  Code  Gb  os_core.o [1]
OSInitHookBegin         0x080023e9     0x2  Code  Gb  os_cpu_c.o [1]
OSInitHookEnd           0x080023eb     0x2  Code  Gb  os_cpu_c.o [1]
OSIntCtxSw              0x08002567          Code  Gb  os_cpu_a.o [1]
OSIntEnter              0x08001c51    0x24  Code  Gb  os_core.o [1]
OSIntExit               0x08001c75    0x94  Code  Gb  os_core.o [1]
OSIntNesting            0x2000313a     0x1  Data  Gb  os_core.o [1]
OSLockNesting           0x2000313b     0x1  Data  Gb  os_core.o [1]
OSPrioCur               0x2000313c     0x1  Data  Gb  os_core.o [1]
OSPrioHighRdy           0x2000313d     0x1  Data  Gb  os_core.o [1]
OSQFreeList             0x20003124     0x4  Data  Gb  os_core.o [1]
OSQTbl                  0x20002f58    0x78  Data  Gb  os_core.o [1]
OSRdyGrp                0x2000313e     0x1  Data  Gb  os_core.o [1]
OSRdyTbl                0x200030f4     0x8  Data  Gb  os_core.o [1]
OSRunning               0x2000313f     0x1  Data  Gb  os_core.o [1]
OSSchedLock             0x08001d09    0x3a  Code  Gb  os_core.o [1]
OSSchedUnlock           0x08001d43    0x5a  Code  Gb  os_core.o [1]
OSStart                 0x08001d9d    0x42  Code  Gb  os_core.o [1]
OSStartHighRdy          0x0800253b          Code  Gb  os_cpu_a.o [1]
OSStatInit              0x08001ddf    0x40  Code  Gb  os_core.o [1]
OSStatRdy               0x20003139     0x1  Data  Gb  os_core.o [1]
OSTCBCur                0x20003114     0x4  Data  Gb  os_core.o [1]
OSTCBFreeList           0x20003118     0x4  Data  Gb  os_core.o [1]
OSTCBHighRdy            0x2000311c     0x4  Data  Gb  os_core.o [1]
OSTCBInitHook           0x08002473     0x2  Code  Gb  os_cpu_c.o [1]
OSTCBList               0x20003120     0x4  Data  Gb  os_core.o [1]
OSTCBPrioTbl            0x20002d90   0x100  Data  Gb  os_core.o [1]
OSTCBTbl                0x2000209c   0x3f0  Data  Gb  os_core.o [1]
OSTaskCreate            0x08002661    0xa6  Code  Gb  os_task.o [1]
OSTaskCreateExt         0x08002707    0xc4  Code  Gb  os_task.o [1]
OSTaskCreateHook        0x080023ed     0x2  Code  Gb  os_cpu_c.o [1]
OSTaskCtr               0x20003140     0x1  Data  Gb  os_core.o [1]
OSTaskIdleHook          0x080023ef     0x8  Code  Gb  os_cpu_c.o [1]
OSTaskIdleStk           0x20002890   0x200  Data  Gb  os_core.o [1]
OSTaskNameSet           0x080027cb    0x5c  Code  Gb  os_task.o [1]
OSTaskResume            0x08002827    0x98  Code  Gb  os_task.o [1]
OSTaskStatHook          0x080023f7     0x2  Code  Gb  os_cpu_c.o [1]
OSTaskStatStk           0x20002690   0x200  Data  Gb  os_core.o [1]
OSTaskStkChk            0x080028bf    0x78  Code  Gb  os_task.o [1]
OSTaskStkInit           0x080023f9    0x78  Code  Gb  os_cpu_c.o [1]
OSTaskSuspend           0x08002937    0xa4  Code  Gb  os_task.o [1]
OSTaskSwHook            0x08002471     0x2  Code  Gb  os_cpu_c.o [1]
OSTickStepState         0x20003141     0x1  Data  Gb  os_core.o [1]
OSTime                  0x20003128     0x4  Data  Gb  os_core.o [1]
OSTimeDly               0x080025e1    0x6c  Code  Gb  os_time.o [1]
OSTimeTick              0x08001e1f    0xe4  Code  Gb  os_core.o [1]
OSTimeTickHook          0x08002475     0x2  Code  Gb  os_cpu_c.o [1]
OSUnMapTbl              0x080056d4   0x100  Data  Gb  os_core.o [1]
OS_CPU_SR_Restore       0x08002535          Code  Gb  os_cpu_a.o [1]
OS_CPU_SR_Save          0x0800252d          Code  Gb  os_cpu_a.o [1]
OS_FlagInit             0x08002479    0x52  Code  Gb  os_flag.o [1]
OS_InitEventList        0x08001f03    0x60  Code  Lc  os_core.o [1]
OS_InitMisc             0x08001f63    0x52  Code  Lc  os_core.o [1]
OS_InitRdyList          0x08001fb5    0x44  Code  Lc  os_core.o [1]
OS_InitTCBList          0x08002071    0x6e  Code  Lc  os_core.o [1]
OS_InitTaskIdle         0x08001ff9    0x3c  Code  Lc  os_core.o [1]
OS_InitTaskStat         0x08002035    0x3c  Code  Lc  os_core.o [1]
OS_MemClr               0x080020df    0x14  Code  Gb  os_core.o [1]
OS_QInit                0x080024d9    0x4c  Code  Gb  os_q.o [1]
OS_Sched                0x080020f3    0x5c  Code  Gb  os_core.o [1]
OS_SchedNew             0x0800214f    0x20  Code  Lc  os_core.o [1]
OS_TCBInit              0x08002231   0x138  Code  Gb  os_core.o [1]
OS_TaskIdle             0x08002171    0x1c  Code  Gb  os_core.o [1]
OS_TaskStat             0x0800218d    0x5e  Code  Gb  os_core.o [1]
OS_TaskStatStkChk       0x080021eb    0x42  Code  Gb  os_core.o [1]
OS_TaskStkClr           0x080029f5    0x18  Code  Gb  os_task.o [1]
PendSV_Handler          0x08002575          Code  Gb  os_cpu_a.o [1]
RCC_ADCCLKConfig        0x08002d8b    0x3c  Code  Gb  stm32f10x_rcc.o [1]
RCC_APB1PeriphClockCmd  0x08002f07    0x56  Code  Gb  stm32f10x_rcc.o [1]
RCC_APB2PeriphClockCmd  0x08002ea5    0x62  Code  Gb  stm32f10x_rcc.o [1]
RCC_DeInit              0x08002ab5    0x60  Code  Gb  stm32f10x_rcc.o [1]
RCC_GetClocksFreq       0x08002dc7    0xde  Code  Gb  stm32f10x_rcc.o [1]
RCC_GetFlagStatus       0x08002f5d    0xa2  Code  Gb  stm32f10x_rcc.o [1]
RCC_HCLKConfig          0x08002cbb    0x4a  Code  Gb  stm32f10x_rcc.o [1]
RCC_HSEConfig           0x08002b15    0x74  Code  Gb  stm32f10x_rcc.o [1]
RCC_PCLK1Config         0x08002d05    0x42  Code  Gb  stm32f10x_rcc.o [1]
RCC_PCLK2Config         0x08002d47    0x44  Code  Gb  stm32f10x_rcc.o [1]
RCC_PLLCmd              0x08002c5f    0x2a  Code  Gb  stm32f10x_rcc.o [1]
RCC_PLLConfig           0x08002bc1    0x9e  Code  Gb  stm32f10x_rcc.o [1]
RCC_SYSCLKConfig        0x08002c89    0x32  Code  Gb  stm32f10x_rcc.o [1]
RCC_WaitForHSEStartUp   0x08002b89    0x38  Code  Gb  stm32f10x_rcc.o [1]
Region$$Table$$Base     0x08005c98           --   Gb  - Linker created -
Region$$Table$$Limit    0x08005cb8           --   Gb  - Linker created -
START_TASK_STK          0x20002a90   0x100  Data  Gb  app_task.o [1]
SetSysClock             0x080054b1     0x8  Code  Lc  system_stm32f10x.o [1]
SetSysClockTo72         0x080054b9    0xe0  Code  Lc  system_stm32f10x.o [1]
SysTick_CLKSourceConfig
                        0x080031b9    0x36  Code  Gb  misc.o [1]
SysTick_Handler         0x080051f5    0x18  Code  Gb  delay.o [1]
SystemInit              0x0800545d    0x54  Code  Gb  system_stm32f10x.o [1]
USART1_IRQHandler       0x08004fb7    0x26  Code  Gb  usart.o [1]
USART_Cmd               0x080033db    0x72  Code  Gb  stm32f10x_usart.o [1]
USART_GetFlagStatus     0x08003619    0xd0  Code  Gb  stm32f10x_usart.o [1]
USART_GetITStatus       0x080036e9   0x126  Code  Gb  stm32f10x_usart.o [1]
USART_ITConfig          0x0800344d   0x132  Code  Gb  stm32f10x_usart.o [1]
USART_Init              0x0800320d   0x1ce  Code  Gb  stm32f10x_usart.o [1]
USART_RX_BUF            0x20002fd0    0x78  Data  Gb  usart.o [1]
USART_RX_STA            0x20003136     0x2  Data  Gb  usart.o [1]
USART_ReceiveData       0x080035c9    0x34  Code  Gb  stm32f10x_usart.o [1]
USART_SendData          0x0800357f    0x4a  Code  Gb  stm32f10x_usart.o [1]
UsageFault_Handler      0x08005ec9     0x2  Code  Gb  stm32f10x_it.o [1]
WFI_SET                 0x08002a0d     0x4  Code  Gb  sys.o [1]
_GenldFullNoMb          0x08000c51   0x274  Code  Lc  xprintffull_nomb.o [3]
_LdtobFullNoMb          0x08000825   0x3fe  Code  Lc  xprintffull_nomb.o [3]
_LitobFullNoMb          0x080006cd   0x112  Code  Lc  xprintffull_nomb.o [3]
_Locale_lconv           0x20000060    0x38  Data  Lc  xlocale_c.o [3]
_PrintfFullNoMb         0x08000131   0x1a4  Code  Gb  xprintffull_nomb.o [3]
_Prout                  0x08005df5    0x16  Code  Gb  xprout.o [3]
_PutcharsFullNoMb       0x08000ec5    0x2e  Code  Lc  xprintffull_nomb.o [3]
_PutfldFullNoMb         0x0800035d   0x264  Code  Lc  xprintffull_nomb.o [3]
_PuttxtFullNoMb         0x080005c1   0x10c  Code  Lc  xprintffull_nomb.o [3]
__aeabi_cdcmple         0x08001529          Code  Gb  DblCmpLe.o [4]
__aeabi_cdrcmple        0x08001559          Code  Gb  DblCmpGe.o [4]
__aeabi_d2iz            0x080016c5          Code  Gb  DblToS32.o [4]
__aeabi_d2uiz           0x08001a51          Code  Gb  DblToU32.o [4]
__aeabi_ddiv            0x08001809          Code  Gb  DblDiv.o [4]
__aeabi_dmul            0x0800126d          Code  Gb  DblMul.o [4]
__aeabi_dsub            0x08001725          Code  Gb  DblSub.o [4]
__aeabi_fadd            0x08005305          Code  Gb  FltAdd.o [4]
__aeabi_i2d             0x08001701          Code  Gb  S32ToDbl.o [4]
__aeabi_ldiv0           0x08001aa5          Code  Gb  I64DivZer.o [5]
__aeabi_memcpy          0x08001411          Code  Gb  ABImemcpy.o [5]
__aeabi_memcpy4         0x08001431          Code  Gb  ABImemcpy.o [5]
__aeabi_memcpy8         0x08001431          Code  Gb  ABImemcpy.o [5]
__aeabi_ui2d            0x08001a79          Code  Gb  U32ToDbl.o [4]
__aeabi_uldivmod        0x0800103d          Code  Gb  I64DivMod.o [5]
__cmain                 0x08005d39          Code  Gb  cmain.o [5]
__exit                  0x08001c11    0x14  Code  Gb  exit.o [6]
__iar_Fail_s            0x08000f6d    0x1c  Code  Gb  xfail_s.o [3]
__iar_Memchr            0x08000fe5          Code  Gb  memchr.o [5]
__iar_Stdout            0x20000018    0x48  Data  Gb  xfiles.o [3]
__iar_Strchr            0x08000f55          Code  Gb  strchr.o [5]
__iar_dadd              0x08001735          Code  Gb  DblSub.o [4]
__iar_data_init3        0x08005c05    0x28  Code  Gb  data_init.o [5]
__iar_dsub              0x08001aa9          Code  Gb  DblAdd.o [4]
__iar_dsubStart         0x08001abb          Code  Gb  DblAdd.o [4]
__iar_fadd              0x080053e9          Code  Gb  FltSub.o [4]
__iar_frexp             0x080014c5          Code  Gb  frexp.o [4]
__iar_frexp64           0x080014b9          Code  Gb  frexp.o [4]
__iar_frexpl            0x080014c5          Code  Gb  frexp.o [4]
__iar_fsub              0x08005311          Code  Gb  FltAdd.o [4]
__iar_fsubStart         0x08005321          Code  Gb  FltAdd.o [4]
__iar_ldexp64           0x08001589          Code  Gb  ldexp.o [4]
__iar_packbits_init_single3
                        0x08005b7d    0x38  Code  Gb  packbits_init_single.o [5]
__iar_program_start     0x08005ecd          Code  Gb  cstartup_M.o [5]
__iar_scalbln64         0x08001589          Code  Gb  ldexp.o [4]
__iar_scalbn64          0x08001589          Code  Gb  ldexp.o [4]
__iar_systems$$module {Abs}
                        0x00000001          Data  Gb  command line/config [2]
__iar_zero_init3        0x08005b3d    0x40  Code  Gb  zero_init3.o [5]
__low_level_init        0x08005d57     0x4  Code  Gb  low_level_init.o [3]
__vector_table          0x08000000          Data  Gb  startup_stm32f10x_hd.o [1]
_call_main              0x08005d45          Code  Gb  cmain.o [5]
_exit                   0x08005d61          Code  Gb  cexit.o [5]
_main                   0x08005d53          Code  Gb  cmain.o [5]
abort                   0x08001a9d     0x6  Code  Gb  abort.o [3]
analysis_cmd            0x08004d8b    0x82  Code  Gb  xshell_cmd.o [1]
assert_failed           0x08002a2d     0x2  Code  Gb  sys.o [1]
bsp_init                0x08005871     0x8  Code  Gb  bsp_board_test.o [1]
cmd_clear               0x08005ef8     0x8  Data  Gb  xshell_cmd.o [1]
cmd_con                 0x08005e2c    0x14  Data  Gb  xshell_cmd.o [1]
cmd_header              0x200030e8     0xc  Data  Gb  xshell_cmd.o [1]
console_task            0x08004d5f    0x2c  Code  Gb  xshell_cmd.o [1]
delay_init              0x0800520d    0x4c  Code  Gb  delay.o [1]
delay_ms                0x0800529b    0x4e  Code  Gb  delay.o [1]
delay_osschedlock       0x080051dd     0x8  Code  Gb  delay.o [1]
delay_osschedunlock     0x080051e5     0x8  Code  Gb  delay.o [1]
delay_ostimedly         0x080051ed     0x8  Code  Gb  delay.o [1]
delay_us                0x08005259    0x42  Code  Gb  delay.o [1]
do_cmd                  0x08004e23    0x5e  Code  Gb  xshell_cmd.o [1]
exit                    0x08005d5b     0x4  Code  Gb  exit.o [3]
fac_ms                  0x20003130     0x2  Data  Lc  delay.o [1]
fac_us                  0x20003138     0x1  Data  Lc  delay.o [1]
flag_use                0x20000098     0x1  Data  Gb  app_task.o [1]
float_task              0x0800513d    0x6a  Code  Gb  app_task.o [1]
float_task::float_num   0x20000000     0x4  Data  Lc  app_task.o [1]
fputc                   0x08004f05    0x12  Code  Gb  usart.o [1]
frexp                   0x080014b9          Code  Gb  frexp.o [4]
frexpl                  0x080014b9          Code  Gb  frexp.o [4]
ldexp                   0x08001589          Code  Gb  ldexp.o [4]
ldexpl                  0x08001589          Code  Gb  ldexp.o [4]
led0_task               0x080050c5    0x3c  Code  Gb  app_task.o [1]
led1_task               0x08005101    0x3c  Code  Gb  app_task.o [1]
localeconv              0x08001a95     0x4  Code  Gb  xlocale_c.o [3]
main                    0x080057d5    0x9c  Code  Gb  main.o [1]
memchr                  0x08000fe5          Code  Gb  memchr.o [5]
obuf                    0x20003098    0x50  Data  Lc  xfiles.o [3]
oled_len                0x080043d9    0x1c  Code  Gb  lcd12864.o [1]
oled_pow                0x080043c1    0x18  Code  Gb  lcd12864.o [1]
printf                  0x08004edd    0x28  Code  Gb  printf.o [3]
putchar                 0x08005e0d     0xc  Code  Gb  putchar.o [3]
reset_system            0x08004e19     0xa  Code  Gb  xshell_cmd.o [1]
scalbln                 0x08001589          Code  Gb  ldexp.o [4]
scalblnl                0x08001589          Code  Gb  ldexp.o [4]
scalbn                  0x08001589          Code  Gb  ldexp.o [4]
scalbnl                 0x08001589          Code  Gb  ldexp.o [4]
scale                   0x080007df    0x46  Code  Lc  xprintffull_nomb.o [3]
sec_hand                0x2000312c     0x4  Data  Lc  xfail_s.o [3]
send_cmd_console        0x08004eb9    0x22  Code  Gb  xshell_cmd.o [1]
start_task              0x08005069    0x5a  Code  Gb  app_task.o [1]
str_help                0x080055b4   0x120  Data  Gb  xshell_cmd.o [1]
strchr                  0x08000f55          Code  Gb  strchr.o [5]
strcmp                  0x08005009          Code  Gb  strcmp.o [5]
strlen                  0x08000fad          Code  Gb  strlen.o [5]
test_i2c                0x0800477f    0x80  Code  Gb  myiic.o [1]
timeout                 0x20003132     0x2  Data  Gb  myiic.o [1]
usart1_send_char        0x08004fdd    0x1e  Code  Gb  usart.o [1]
usart_init              0x08004f17    0xa0  Code  Gb  usart.o [1]
vprintf                 0x08004aed    0x20  Code  Gb  vprintf.o [3]
work_help               0x08004e0d     0xc  Code  Gb  xshell_cmd.o [1]
xshell_init             0x08004d35    0x2a  Code  Gb  xshell_cmd.o [1]


[1] = H:\cp_data\STM32\stm32f103_program\program_F103\Basic_Project_F103\Debug\Obj
[2] = command line
[3] = dl7M_tlf.a
[4] = m7M_tl.a
[5] = rt7M_tl.a
[6] = shb_l.a

  20 614 bytes of readonly  code memory
   4 064 bytes of readonly  data memory
  14 656 bytes of readwrite data memory

Errors: none
Warnings: none
